target datalayout = "e-m:e-p270:32:32-p271:32:32-p272:64:64-i64:64-i128:128-f80:128-n8:16:32:64-S128"
target triple = "x86_64-pc-linux-gnu"

%struct.bn_mont_ctx_st = type { i32, %struct.bignum_st, %struct.bignum_st, %struct.bignum_st, [2 x i64], i32 }
%struct.bignum_st = type { ptr, i32, i32, i32, i32 }

@.str = private unnamed_addr constant [31 x i8] c"../openssl/crypto/bn/bn_mont.c\00", align 1

; Function Attrs: nounwind uwtable
define void @BN_MONT_CTX_free(ptr noundef %0) #0 {
  %2 = alloca ptr, align 8
  store ptr %0, ptr %2, align 8, !tbaa !8
  %3 = load ptr, ptr %2, align 8, !tbaa !8
  %4 = icmp eq ptr %3, null
  br i1 %4, label %5, label %6

5:                                                ; preds = %1
  br label %20

6:                                                ; preds = %1
  %7 = load ptr, ptr %2, align 8, !tbaa !8
  %8 = getelementptr inbounds nuw %struct.bn_mont_ctx_st, ptr %7, i32 0, i32 1
  call void @BN_clear_free(ptr noundef %8)
  %9 = load ptr, ptr %2, align 8, !tbaa !8
  %10 = getelementptr inbounds nuw %struct.bn_mont_ctx_st, ptr %9, i32 0, i32 2
  call void @BN_clear_free(ptr noundef %10)
  %11 = load ptr, ptr %2, align 8, !tbaa !8
  %12 = getelementptr inbounds nuw %struct.bn_mont_ctx_st, ptr %11, i32 0, i32 3
  call void @BN_clear_free(ptr noundef %12)
  %13 = load ptr, ptr %2, align 8, !tbaa !8
  %14 = getelementptr inbounds nuw %struct.bn_mont_ctx_st, ptr %13, i32 0, i32 5
  %15 = load i32, ptr %14, align 8, !tbaa !30
  %16 = and i32 %15, 1
  %17 = icmp ne i32 %16, 0
  br i1 %17, label %18, label %20

18:                                               ; preds = %6
  %19 = load ptr, ptr %2, align 8, !tbaa !8
  call void @CRYPTO_free(ptr noundef %19, ptr noundef @.str, i32 noundef 258)
  br label %20

20:                                               ; preds = %5, %18, %6
  ret void
}