; Function Attrs: nounwind uwtable
define void @BN_MONT_CTX_free(ptr noundef %0) local_unnamed_addr #0 {
  %2 = icmp eq ptr %0, null
  br i1 %2, label %11, label %3

3:                                                ; preds = %1
  %4 = getelementptr inbounds nuw i8, ptr %0, i64 8
  tail call void @BN_clear_free(ptr noundef nonnull %4) #5
  %5 = getelementptr inbounds nuw i8, ptr %0, i64 32
  tail call void @BN_clear_free(ptr noundef nonnull %5) #5
  %6 = getelementptr inbounds nuw i8, ptr %0, i64 56
  tail call void @BN_clear_free(ptr noundef nonnull %6) #5
  %7 = getelementptr inbounds nuw i8, ptr %0, i64 96
  %8 = load i32, ptr %7, align 8, !tbaa !22
  %9 = and i32 %8, 1
  %.not = icmp eq i32 %9, 0
  br i1 %.not, label %11, label %10

10:                                               ; preds = %3
  tail call void @CRYPTO_free(ptr noundef nonnull %0, ptr noundef nonnull @.str, i32 noundef 258) #5
  br label %11

11:                                               ; preds = %1, %10, %3
  ret void
}